; ModuleID = '24/828.c'
source_filename = "24/828.c"
target datalayout = "e-m:e-p270:32:32-p271:32:32-p272:64:64-i64:64-f80:128-n8:16:32:64-S128"
target triple = "x86_64-pc-linux-gnu"

@.str = private unnamed_addr constant [3 x i8] c"%c\00", align 1
@.str.1 = private unnamed_addr constant [2 x i8] c"\0A\00", align 1

; Function Attrs: noinline nounwind uwtable
define dso_local i32 @main(i32 %0, i8** %1) #0 {
  %3 = alloca i32, align 4
  %4 = alloca i32, align 4
  %5 = alloca i8**, align 8
  %6 = alloca [1000 x i8], align 16
  %7 = alloca i32, align 4
  %8 = alloca i32, align 4
  %9 = alloca i32, align 4
  %10 = alloca i32, align 4
  %11 = alloca i32, align 4
  %12 = alloca i32, align 4
  %13 = alloca i32, align 4
  %14 = alloca i32, align 4
  %15 = alloca i32, align 4
  store i32 0, i32* %3, align 4
  store i32 %0, i32* %4, align 4
  store i8** %1, i8*** %5, align 8
  store i32 1, i32* %13, align 4
  store i32 1000, i32* %14, align 4
  store i32 0, i32* %15, align 4
  %16 = getelementptr inbounds [1000 x i8], [1000 x i8]* %6, i64 0, i64 0
  %17 = call i32 (i8*, ...) bitcast (i32 (...)* @gets to i32 (i8*, ...)*)(i8* %16)
  %18 = getelementptr inbounds [1000 x i8], [1000 x i8]* %6, i64 0, i64 0
  %19 = call i64 @strlen(i8* %18) #3
  %20 = trunc i64 %19 to i32
  store i32 %20, i32* %7, align 4
  store i32 1, i32* %8, align 4
  br label %21

21:                                               ; preds = %75, %2
  %22 = load i32, i32* %8, align 4
  %23 = load i32, i32* %7, align 4
  %24 = sub nsw i32 %23, 1
  %25 = icmp sle i32 %22, %24
  br i1 %25, label %26, label %78

26:                                               ; preds = %21
  %27 = load i32, i32* %8, align 4
  %28 = sext i32 %27 to i64
  %29 = getelementptr inbounds [1000 x i8], [1000 x i8]* %6, i64 0, i64 %28
  %30 = load i8, i8* %29, align 1
  %31 = sext i8 %30 to i32
  %32 = icmp ne i32 %31, 32
  br i1 %32, label %33, label %41

33:                                               ; preds = %26
  %34 = load i32, i32* %8, align 4
  %35 = load i32, i32* %7, align 4
  %36 = sub nsw i32 %35, 1
  %37 = icmp ne i32 %34, %36
  br i1 %37, label %38, label %41

38:                                               ; preds = %33
  %39 = load i32, i32* %13, align 4
  %40 = add nsw i32 %39, 1
  store i32 %40, i32* %13, align 4
  br label %74

41:                                               ; preds = %33, %26
  %42 = load i32, i32* %8, align 4
  %43 = load i32, i32* %7, align 4
  %44 = sub nsw i32 %43, 1
  %45 = icmp eq i32 %42, %44
  br i1 %45, label %46, label %51

46:                                               ; preds = %41
  %47 = load i32, i32* %13, align 4
  %48 = add nsw i32 %47, 1
  store i32 %48, i32* %13, align 4
  %49 = load i32, i32* %8, align 4
  %50 = add nsw i32 %49, 1
  store i32 %50, i32* %8, align 4
  br label %51

51:                                               ; preds = %46, %41
  %52 = load i32, i32* %13, align 4
  %53 = load i32, i32* %15, align 4
  %54 = icmp sgt i32 %52, %53
  br i1 %54, label %55, label %62

55:                                               ; preds = %51
  %56 = load i32, i32* %13, align 4
  store i32 %56, i32* %15, align 4
  %57 = load i32, i32* %8, align 4
  %58 = load i32, i32* %13, align 4
  %59 = sub nsw i32 %57, %58
  store i32 %59, i32* %11, align 4
  %60 = load i32, i32* %8, align 4
  %61 = sub nsw i32 %60, 1
  store i32 %61, i32* %12, align 4
  br label %62

62:                                               ; preds = %55, %51
  %63 = load i32, i32* %13, align 4
  %64 = load i32, i32* %14, align 4
  %65 = icmp slt i32 %63, %64
  br i1 %65, label %66, label %73

66:                                               ; preds = %62
  %67 = load i32, i32* %13, align 4
  store i32 %67, i32* %14, align 4
  %68 = load i32, i32* %8, align 4
  %69 = load i32, i32* %13, align 4
  %70 = sub nsw i32 %68, %69
  store i32 %70, i32* %9, align 4
  %71 = load i32, i32* %8, align 4
  %72 = sub nsw i32 %71, 1
  store i32 %72, i32* %10, align 4
  br label %73

73:                                               ; preds = %66, %62
  store i32 0, i32* %13, align 4
  br label %74

74:                                               ; preds = %73, %38
  br label %75

75:                                               ; preds = %74
  %76 = load i32, i32* %8, align 4
  %77 = add nsw i32 %76, 1
  store i32 %77, i32* %8, align 4
  br label %21

78:                                               ; preds = %21
  %79 = load i32, i32* %11, align 4
  store i32 %79, i32* %8, align 4
  br label %80

80:                                               ; preds = %91, %78
  %81 = load i32, i32* %8, align 4
  %82 = load i32, i32* %12, align 4
  %83 = icmp sle i32 %81, %82
  br i1 %83, label %84, label %94

84:                                               ; preds = %80
  %85 = load i32, i32* %8, align 4
  %86 = sext i32 %85 to i64
  %87 = getelementptr inbounds [1000 x i8], [1000 x i8]* %6, i64 0, i64 %86
  %88 = load i8, i8* %87, align 1
  %89 = sext i8 %88 to i32
  %90 = call i32 (i8*, ...) @printf(i8* getelementptr inbounds ([3 x i8], [3 x i8]* @.str, i64 0, i64 0), i32 %89)
  br label %91

91:                                               ; preds = %84
  %92 = load i32, i32* %8, align 4
  %93 = add nsw i32 %92, 1
  store i32 %93, i32* %8, align 4
  br label %80

94:                                               ; preds = %80
  %95 = call i32 (i8*, ...) @printf(i8* getelementptr inbounds ([2 x i8], [2 x i8]* @.str.1, i64 0, i64 0))
  %96 = load i32, i32* %9, align 4
  store i32 %96, i32* %8, align 4
  br label %97

97:                                               ; preds = %108, %94
  %98 = load i32, i32* %8, align 4
  %99 = load i32, i32* %10, align 4
  %100 = icmp sle i32 %98, %99
  br i1 %100, label %101, label %111

101:                                              ; preds = %97
  %102 = load i32, i32* %8, align 4
  %103 = sext i32 %102 to i64
  %104 = getelementptr inbounds [1000 x i8], [1000 x i8]* %6, i64 0, i64 %103
  %105 = load i8, i8* %104, align 1
  %106 = sext i8 %105 to i32
  %107 = call i32 (i8*, ...) @printf(i8* getelementptr inbounds ([3 x i8], [3 x i8]* @.str, i64 0, i64 0), i32 %106)
  br label %108

108:                                              ; preds = %101
  %109 = load i32, i32* %8, align 4
  %110 = add nsw i32 %109, 1
  store i32 %110, i32* %8, align 4
  br label %97

111:                                              ; preds = %97
  ret i32 0
}

declare dso_local i32 @gets(...) #1

; Function Attrs: nounwind readonly
declare dso_local i64 @strlen(i8*) #2

declare dso_local i32 @printf(i8*, ...) #1


!llvm.module.flags = !{!0}
!llvm.ident = !{!1}

!0 = !{i32 1, !"wchar_size", i32 4}
!1 = !{!"clang version 10.0.0-4ubuntu1 "}
